target datalayout = "e-m:e-p270:32:32-p271:32:32-p272:64:64-i64:64-i128:128-f80:128-n8:16:32:64-S128"
target triple = "x86_64-pc-linux-gnu"

%struct.php_http_parser = type { i8, i8, i8, i8, i32, i64, i16, i16, i16, i8, i8, ptr }

; Function Attrs: nounwind uwtable
define hidden i32 @php_http_should_keep_alive(ptr noundef %0) #0 {
  %2 = alloca i32, align 4
  %3 = alloca ptr, align 8
  store ptr %0, ptr %3, align 8, !tbaa !4
  %4 = load ptr, ptr %3, align 8, !tbaa !4
  %5 = getelementptr inbounds nuw %struct.php_http_parser, ptr %4, i32 0, i32 6
  %6 = load i16, ptr %5, align 8, !tbaa !29
  %7 = zext i16 %6 to i32
  %8 = icmp sgt i32 %7, 0
  br i1 %8, label %9, label %24

9:                                                ; preds = %1
  %10 = load ptr, ptr %3, align 8, !tbaa !4
  %11 = getelementptr inbounds nuw %struct.php_http_parser, ptr %10, i32 0, i32 7
  %12 = load i16, ptr %11, align 2, !tbaa !30
  %13 = zext i16 %12 to i32
  %14 = icmp sgt i32 %13, 0
  br i1 %14, label %15, label %24

15:                                               ; preds = %9
  %16 = load ptr, ptr %3, align 8, !tbaa !4
  %17 = load i8, ptr %16, align 8
  %18 = lshr i8 %17, 2
  %19 = zext i8 %18 to i32
  %20 = and i32 %19, 4
  %21 = icmp ne i32 %20, 0
  br i1 %21, label %22, label %23

22:                                               ; preds = %15
  store i32 0, ptr %2, align 4
  br label %33

23:                                               ; preds = %15
  store i32 1, ptr %2, align 4
  br label %33

24:                                               ; preds = %9, %1
  %25 = load ptr, ptr %3, align 8, !tbaa !4
  %26 = load i8, ptr %25, align 8
  %27 = lshr i8 %26, 2
  %28 = zext i8 %27 to i32
  %29 = and i32 %28, 2
  %30 = icmp ne i32 %29, 0
  br i1 %30, label %31, label %32

31:                                               ; preds = %24
  store i32 1, ptr %2, align 4
  br label %33

32:                                               ; preds = %24
  store i32 0, ptr %2, align 4
  br label %33

33:                                               ; preds = %32, %31, %23, %22
  %34 = load i32, ptr %2, align 4
  ret i32 %34
}