; Function Attrs: mustprogress nofree norecurse nosync nounwind willreturn memory(argmem: read) uwtable
define hidden range(i32 0, 2) i32 @php_http_should_keep_alive(ptr noundef readonly captures(none) %0) local_unnamed_addr #1 {
  %2 = getelementptr inbounds nuw i8, ptr %0, i64 16
  %3 = load i16, ptr %2, align 8, !tbaa !21
  %.not = icmp eq i16 %3, 0
  br i1 %.not, label %10, label %4

4:                                                ; preds = %1
  %5 = getelementptr inbounds nuw i8, ptr %0, i64 18
  %6 = load i16, ptr %5, align 2, !tbaa !22
  %.not4 = icmp eq i16 %6, 0
  br i1 %.not4, label %10, label %7

7:                                                ; preds = %4
  %8 = load i8, ptr %0, align 8
  %9 = and i8 %8, 16
  %.not6 = icmp eq i8 %9, 0
  %. = zext i1 %.not6 to i32
  br label %13

10:                                               ; preds = %4, %1
  %11 = load i8, ptr %0, align 8
  %12 = lshr i8 %11, 3
  %.lobit = and i8 %12, 1
  %.7 = zext nneg i8 %.lobit to i32
  br label %13

13:                                               ; preds = %10, %7
  %.0 = phi i32 [ %., %7 ], [ %.7, %10 ]
  ret i32 %.0
}